; Function Attrs: nounwind uwtable
define dso_local range(i32 -2147483648, 1) i32 @uv_pipe_getpeername(ptr noundef %0, ptr noundef captures(address_is_null) %1, ptr noundef captures(address_is_null) %2) local_unnamed_addr #0 {
  %4 = alloca %struct.sockaddr_un, align 2
  %5 = alloca i32, align 4
  call void @llvm.lifetime.start.p0(i64 110, ptr nonnull %4) #12
  call void @llvm.lifetime.start.p0(i64 4, ptr nonnull %5) #12
  %6 = icmp eq ptr %1, null
  %7 = icmp eq ptr %2, null
  %or.cond.i = or i1 %6, %7
  br i1 %or.cond.i, label %uv__pipe_getsockpeername.exit, label %8

8:                                                ; preds = %3
  %9 = load i64, ptr %2, align 8
  %10 = icmp eq i64 %9, 0
  br i1 %10, label %uv__pipe_getsockpeername.exit, label %11

11:                                               ; preds = %8
  store i32 110, ptr %5, align 4
  call void @llvm.memset.p0.i64(ptr noundef nonnull align 2 dereferenceable(110) %4, i8 0, i64 110, i1 false)
  %12 = call i32 @uv__getsockpeername(ptr noundef %0, ptr noundef nonnull @getpeername, ptr noundef nonnull %4, ptr noundef nonnull %5) #12
  %13 = icmp slt i32 %12, 0
  br i1 %13, label %14, label %15

14:                                               ; preds = %11
  store i64 0, ptr %2, align 8
  br label %uv__pipe_getsockpeername.exit

15:                                               ; preds = %11
  %16 = getelementptr inbounds nuw i8, ptr %4, i64 2
  %17 = load i8, ptr %16, align 2
  %18 = icmp eq i8 %17, 0
  br i1 %18, label %19, label %23

19:                                               ; preds = %15
  %20 = load i32, ptr %5, align 4
  %21 = zext i32 %20 to i64
  %22 = add nsw i64 %21, -2
  br label %30

23:                                               ; preds = %15
  %24 = call ptr @memchr(ptr noundef nonnull dereferenceable(1) %16, i32 noundef 0, i64 noundef 108) #13
  %25 = icmp eq ptr %24, null
  %26 = getelementptr inbounds nuw i8, ptr %4, i64 110
  %spec.select.i = select i1 %25, ptr %26, ptr %24
  %27 = ptrtoint ptr %spec.select.i to i64
  %28 = ptrtoint ptr %16 to i64
  %29 = sub i64 %27, %28
  br label %30

30:                                               ; preds = %23, %19
  %storemerge.in.i = phi i64 [ %29, %23 ], [ %22, %19 ]
  %.020.i = phi i64 [ 1, %23 ], [ 0, %19 ]
  %31 = and i64 %storemerge.in.i, 4294967295
  %32 = add nuw nsw i64 %31, %.020.i
  %33 = load i64, ptr %2, align 8
  %34 = icmp ugt i64 %32, %33
  br i1 %34, label %35, label %36

35:                                               ; preds = %30
  store i64 %32, ptr %2, align 8
  br label %uv__pipe_getsockpeername.exit

36:                                               ; preds = %30
  call void @llvm.memcpy.p0.p0.i64(ptr nonnull align 1 %1, ptr nonnull align 2 %16, i64 %31, i1 false)
  store i64 %31, ptr %2, align 8
  %37 = load i8, ptr %1, align 1
  %.not.i = icmp eq i8 %37, 0
  br i1 %.not.i, label %uv__pipe_getsockpeername.exit, label %38

38:                                               ; preds = %36
  %39 = getelementptr inbounds nuw i8, ptr %1, i64 %31
  store i8 0, ptr %39, align 1
  br label %uv__pipe_getsockpeername.exit

uv__pipe_getsockpeername.exit:                    ; preds = %3, %8, %14, %35, %36, %38
  %.0.i = phi i32 [ %12, %14 ], [ -105, %35 ], [ -22, %8 ], [ -22, %3 ], [ 0, %38 ], [ 0, %36 ]
  call void @llvm.lifetime.end.p0(i64 4, ptr nonnull %5) #12
  call void @llvm.lifetime.end.p0(i64 110, ptr nonnull %4) #12
  ret i32 %.0.i
}